; Function Attrs: nounwind uwtable
define internal fastcc void @_jumbleClusterStmt(ptr noundef %0, ptr noundef nonnull readonly captures(none) %1) unnamed_addr #0 {
  %3 = getelementptr inbounds nuw i8, ptr %1, i64 8
  %4 = load ptr, ptr %3, align 8
  tail call fastcc void @_jumbleNode(ptr noundef %0, ptr noundef %4)
  %5 = getelementptr inbounds nuw i8, ptr %1, i64 16
  %6 = load ptr, ptr %5, align 8
  %.not = icmp eq ptr %6, null
  br i1 %.not, label %23, label %7

7:                                                ; preds = %2
  %8 = tail call i64 @strlen(ptr noundef nonnull dereferenceable(1) %6) #8
  %9 = add i64 %8, 1
  %10 = load ptr, ptr %0, align 8
  %11 = getelementptr inbounds nuw i8, ptr %0, i64 8
  %12 = load i64, ptr %11, align 8
  %.not23.i = icmp eq i64 %9, 0
  br i1 %.not23.i, label %AppendJumble.exit, label %.lr.ph.i

.lr.ph.i:                                         ; preds = %7, %16
  %.026.i = phi ptr [ %21, %16 ], [ %6, %7 ]
  %.02125.i = phi i64 [ %22, %16 ], [ %9, %7 ]
  %.02224.i = phi i64 [ %20, %16 ], [ %12, %7 ]
  %13 = icmp ugt i64 %.02224.i, 1023
  br i1 %13, label %14, label %16

14:                                               ; preds = %.lr.ph.i
  %15 = tail call i64 @hash_bytes_extended(ptr noundef %10, i32 noundef 1024, i64 noundef 0) #9
  store i64 %15, ptr %10, align 1
  br label %16

16:                                               ; preds = %14, %.lr.ph.i
  %.1.i = phi i64 [ 8, %14 ], [ %.02224.i, %.lr.ph.i ]
  %17 = sub nuw nsw i64 1024, %.1.i
  %18 = tail call i64 @llvm.umin.i64(i64 %.02125.i, i64 %17)
  %19 = getelementptr inbounds nuw i8, ptr %10, i64 %.1.i
  tail call void @llvm.memcpy.p0.p0.i64(ptr noundef nonnull align 1 dereferenceable(1) %19, ptr noundef nonnull align 1 dereferenceable(1) %.026.i, i64 %18, i1 false)
  %20 = add nuw nsw i64 %18, %.1.i
  %21 = getelementptr inbounds nuw i8, ptr %.026.i, i64 %18
  %22 = sub i64 %.02125.i, %18
  %.not.i = icmp eq i64 %22, 0
  br i1 %.not.i, label %AppendJumble.exit, label %.lr.ph.i, !llvm.loop !7

AppendJumble.exit:                                ; preds = %16, %7
  %.022.lcssa.i = phi i64 [ %12, %7 ], [ %20, %16 ]
  store i64 %.022.lcssa.i, ptr %11, align 8
  br label %23

23:                                               ; preds = %AppendJumble.exit, %2
  %24 = getelementptr inbounds nuw i8, ptr %1, i64 24
  %25 = load ptr, ptr %24, align 8
  tail call fastcc void @_jumbleNode(ptr noundef %0, ptr noundef %25)
  ret void
}